(dp0
S'METTS MARK'
p1
(dp2
S'to_messages'
p3
F807.0
sS'deferral_payments'
p4
F0.0
sS'from_poi_to_this_person_pct'
p5
F4.708798017348203
sS'expenses'
p6
F94299.0
sS'poi'
p7
I00
sS'from_this_person_to_poi_pct'
p8
F3.4482758620689653
sS'deferred_income'
p9
F0.0
sS'email_address'
p10
S'mark.metts@enron.com'
p11
sS'from_poi_to_this_person'
p12
F38.0
sS'restricted_stock_deferred'
p13
F0.0
sS'shared_receipt_with_poi'
p14
F702.0
sS'loan_advances'
p15
Fnan
sS'from_messages'
p16
F29.0
sS'other'
p17
F1740.0
sS'director_fees'
p18
F0.0
sS'bonus'
p19
F600000.0
sS'total_stock_value'
p20
F585062.0
sS'from_this_person_to_poi'
p21
F1.0
sS'long_term_incentive'
p22
F0.0
sS'restricted_stock'
p23
F585062.0
sS'salary'
p24
F365788.0
sS'total_payments'
p25
F1061827.0
sS'exercised_stock_options'
p26
F0.0
sS'shared_receipt_with_poi_pct'
p27
F86.98884758364312
ssS'BAXTER JOHN C'
p28
(dp29
g3
F1211.0
sg4
F1295738.0
sg5
F2.584537105201731
sg6
F11200.0
sg7
I00
sg8
F10.057358691295487
sg9
F-1386055.0
sg10
Fnan
sg12
F35.0
sg13
F0.0
sg14
F740.5
sg15
Fnan
sg16
F41.0
sg17
F2660303.0
sg18
F0.0
sg19
F1200000.0
sg20
F10623258.0
sg21
F8.0
sg22
F1586055.0
sg23
F3942714.0
sg24
F267102.0
sg25
F5634343.0
sg26
F6680544.0
sg27
F66.10439568709847
ssS'ELLIOTT STEVEN'
p30
(dp31
g3
F1211.0
sg4
F0.0
sg5
F2.584537105201731
sg6
F78552.0
sg7
I00
sg8
F10.057358691295487
sg9
F-400729.0
sg10
S'steven.elliott@enron.com'
p32
sg12
F35.0
sg13
F0.0
sg14
F740.5
sg15
Fnan
sg16
F41.0
sg17
F12961.0
sg18
F0.0
sg19
F350000.0
sg20
F6678735.0
sg21
F8.0
sg22
F0.0
sg23
F1788391.0
sg24
F170941.0
sg25
F211725.0
sg26
F4890344.0
sg27
F66.10439568709847
ssS'CORDES WILLIAM R'
p33
(dp34
g3
F764.0
sg4
F0.0
sg5
F1.3089005235602094
sg6
F0.0
sg7
I00
sg8
F0.0
sg9
F0.0
sg10
S'bill.cordes@enron.com'
p35
sg12
F10.0
sg13
F0.0
sg14
F58.0
sg15
Fnan
sg16
F12.0
sg17
F0.0
sg18
F0.0
sg19
F750000.0
sg20
F1038185.0
sg21
F0.0
sg22
F0.0
sg23
F386335.0
sg24
F258741.0
sg25
F0.0
sg26
F651850.0
sg27
F7.591623036649215
ssS'HANNON KEVIN P'
p36
(dp37
g3
F1045.0
sg4
F0.0
sg5
F3.062200956937799
sg6
F34039.0
sg7
I01
sg8
F65.625
sg9
F-3117011.0
sg10
S'kevin.hannon@enron.com'
p38
sg12
F32.0
sg13
F0.0
sg14
F1035.0
sg15
Fnan
sg16
F32.0
sg17
F11350.0
sg18
F0.0
sg19
F1500000.0
sg20
F6391065.0
sg21
F21.0
sg22
F1617011.0
sg23
F853064.0
sg24
F243293.0
sg25
F288682.0
sg26
F5538001.0
sg27
F99.04306220095694
ssS'MORDAUNT KRISTINA M'
p39
(dp40
g3
F1211.0
sg4
F0.0
sg5
F2.584537105201731
sg6
F35018.0
sg7
I00
sg8
F10.057358691295487
sg9
F0.0
sg10
S'kristina.mordaunt@enron.com'
p41
sg12
F35.0
sg13
F0.0
sg14
F740.5
sg15
Fnan
sg16
F41.0
sg17
F1411.0
sg18
F0.0
sg19
F325000.0
sg20
F208510.0
sg21
F8.0
sg22
F0.0
sg23
F208510.0
sg24
F267093.0
sg25
F628522.0
sg26
F0.0
sg27
F66.10439568709847
ssS'MEYER ROCKFORD G'
p42
(dp43
g3
F232.0
sg4
F1848227.0
sg5
F0.0
sg6
F0.0
sg7
I00
sg8
F0.0
sg9
F0.0
sg10
S'rockford.meyer@enron.com'
p44
sg12
F0.0
sg13
F0.0
sg14
F22.0
sg15
Fnan
sg16
F28.0
sg17
F0.0
sg18
F0.0
sg19
F750000.0
sg20
F955873.0
sg21
F0.0
sg22
F0.0
sg23
F462384.0
sg24
F258741.0
sg25
F1848227.0
sg26
F493489.0
sg27
F9.482758620689655
ssS'MCMAHON JEFFREY'
p45
(dp46
g3
F2355.0
sg4
F0.0
sg5
F2.4628450106157116
sg6
F137108.0
sg7
I00
sg8
F54.166666666666664
sg9
F0.0
sg10
S'jeffrey.mcmahon@enron.com'
p47
sg12
F58.0
sg13
F0.0
sg14
F2228.0
sg15
Fnan
sg16
F48.0
sg17
F297353.0
sg18
F0.0
sg19
F2600000.0
sg20
F1662855.0
sg21
F26.0
sg22
F694862.0
sg23
F558801.0
sg24
F370448.0
sg25
F4099771.0
sg26
F1104054.0
sg27
F94.60721868365181
ssS'HORTON STANLEY C'
p48
(dp49
g3
F2350.0
sg4
F3131860.0
sg5
F1.872340425531915
sg6
F0.0
sg7
I00
sg8
F1.3979496738117427
sg9
F0.0
sg10
S'stanley.horton@enron.com'
p50
sg12
F44.0
sg13
F0.0
sg14
F1074.0
sg15
Fnan
sg16
F1073.0
sg17
F0.0
sg18
F0.0
sg19
F750000.0
sg20
F7256648.0
sg21
F15.0
sg22
F0.0
sg23
F2046079.0
sg24
F258741.0
sg25
F3131860.0
sg26
F5210569.0
sg27
F45.70212765957447
ssS'PIPER GREGORY F'
p51
(dp52
g3
F1238.0
sg4
F1130036.0
sg5
F4.92730210016155
sg6
F43057.0
sg7
I00
sg8
F21.62162162162162
sg9
F-33333.0
sg10
S'greg.piper@enron.com'
p53
sg12
F61.0
sg13
F-409554.0
sg14
F742.0
sg15
Fnan
sg16
F222.0
sg17
F778.0
sg18
F0.0
sg19
F400000.0
sg20
F880290.0
sg21
F48.0
sg22
F0.0
sg23
F409554.0
sg24
F197091.0
sg25
F1737629.0
sg26
F880290.0
sg27
F59.935379644588046
ssS'HUMPHREY GENE E'
p54
(dp55
g3
F128.0
sg4
F2964506.0
sg5
F7.8125
sg6
F4994.0
sg7
I00
sg8
F100.0
sg9
F0.0
sg10
S'gene.humphrey@enron.com'
p56
sg12
F10.0
sg13
F0.0
sg14
F119.0
sg15
Fnan
sg16
F17.0
sg17
F0.0
sg18
F0.0
sg19
F750000.0
sg20
F2282768.0
sg21
F17.0
sg22
F0.0
sg23
F0.0
sg24
F130724.0
sg25
F3100224.0
sg26
F2282768.0
sg27
F92.96875
ssS'UMANOFF ADAM S'
p57
(dp58
g3
F111.0
sg4
F0.0
sg5
F10.81081081081081
sg6
F53122.0
sg7
I00
sg8
F0.0
sg9
F0.0
sg10
S'adam.umanoff@enron.com'
p59
sg12
F12.0
sg13
F0.0
sg14
F41.0
sg15
Fnan
sg16
F18.0
sg17
F0.0
sg18
F0.0
sg19
F788750.0
sg20
F0.0
sg21
F0.0
sg22
F0.0
sg23
F0.0
sg24
F288589.0
sg25
F1130461.0
sg26
F0.0
sg27
F36.93693693693694
ssS'BLACHMAN JEREMY M'
p60
(dp61
g3
F2475.0
sg4
F0.0
sg5
F1.0101010101010102
sg6
F84208.0
sg7
I00
sg8
F14.285714285714285
sg9
F0.0
sg10
S'jeremy.blachman@enron.com'
p62
sg12
F25.0
sg13
F0.0
sg14
F2326.0
sg15
Fnan
sg16
F14.0
sg17
F272.0
sg18
F0.0
sg19
F850000.0
sg20
F954354.0
sg21
F2.0
sg22
F831809.0
sg23
F189041.0
sg24
F248546.0
sg25
F2014835.0
sg26
F765313.0
sg27
F93.97979797979798
ssS'SUNDE MARTIN'
p63
(dp64
g3
F2647.0
sg4
F0.0
sg5
F1.3978088401964488
sg6
F0.0
sg7
I00
sg8
F34.21052631578947
sg9
F0.0
sg10
S'marty.sunde@enron.com'
p65
sg12
F37.0
sg13
F0.0
sg14
F2565.0
sg15
Fnan
sg16
F38.0
sg17
F111122.0
sg18
F0.0
sg19
F700000.0
sg20
F698920.0
sg21
F13.0
sg22
F476451.0
sg23
F698920.0
sg24
F257486.0
sg25
F1545059.0
sg26
F0.0
sg27
F96.90215338118625
ssS'GIBBS DANA R'
p66
(dp67
g3
F169.0
sg4
F504610.0
sg5
F0.0
sg6
F0.0
sg7
I00
sg8
F0.0
sg9
F0.0
sg10
S'dana.gibbs@enron.com'
p68
sg12
F0.0
sg13
F0.0
sg14
F23.0
sg15
Fnan
sg16
F12.0
sg17
F0.0
sg18
F0.0
sg19
F750000.0
sg20
F2218275.0
sg21
F0.0
sg22
F461912.0
sg23
F0.0
sg24
F258741.0
sg25
F966522.0
sg26
F2218275.0
sg27
F13.609467455621301
ssS'LOWRY CHARLES P'
p69
(dp70
g3
F1211.0
sg4
F0.0
sg5
F2.584537105201731
sg6
F0.0
sg7
I00
sg8
F10.057358691295487
sg9
F0.0
sg10
Fnan
sg12
F35.0
sg13
F-153686.0
sg14
F740.5
sg15
Fnan
sg16
F41.0
sg17
F0.0
sg18
F0.0
sg19
F750000.0
sg20
F372205.0
sg21
F8.0
sg22
F0.0
sg23
F153686.0
sg24
F258741.0
sg25
F0.0
sg26
F372205.0
sg27
F66.10439568709847
ssS'COLWELL WESLEY'
p71
(dp72
g3
F1758.0
sg4
F27610.0
sg5
F13.651877133105803
sg6
F16514.0
sg7
I01
sg8
F27.500000000000004
sg9
F-144062.0
sg10
S'wes.colwell@enron.com'
p73
sg12
F240.0
sg13
F0.0
sg14
F1132.0
sg15
Fnan
sg16
F40.0
sg17
F101740.0
sg18
F0.0
sg19
F1200000.0
sg20
F698242.0
sg21
F11.0
sg22
F0.0
sg23
F698242.0
sg24
F288542.0
sg25
F1490344.0
sg26
F0.0
sg27
F64.39135381114903
ssS'MULLER MARK S'
p74
(dp75
g3
F136.0
sg4
F842924.0
sg5
F8.823529411764707
sg6
F0.0
sg7
I00
sg8
F0.0
sg9
F-719000.0
sg10
S's..muller@enron.com'
p76
sg12
F12.0
sg13
F0.0
sg14
F114.0
sg15
Fnan
sg16
F16.0
sg17
F947.0
sg18
F0.0
sg19
F1100000.0
sg20
F1416848.0
sg21
F0.0
sg22
F1725545.0
sg23
F360528.0
sg24
F251654.0
sg25
F3202070.0
sg26
F1056320.0
sg27
F83.82352941176471
ssS'JACKSON CHARLENE R'
p77
(dp78
g3
F258.0
sg4
F0.0
sg5
F9.689922480620156
sg6
F10181.0
sg7
I00
sg8
F33.92857142857143
sg9
F0.0
sg10
S'charlene.jackson@enron.com'
p79
sg12
F25.0
sg13
F0.0
sg14
F117.0
sg15
Fnan
sg16
F56.0
sg17
F2435.0
sg18
F0.0
sg19
F250000.0
sg20
F725735.0
sg21
F19.0
sg22
F0.0
sg23
F540672.0
sg24
F288558.0
sg25
F551174.0
sg26
F185063.0
sg27
F45.348837209302324
ssS'WESTFAHL RICHARD K'
p80
(dp81
g3
F1211.0
sg4
F0.0
sg5
F2.584537105201731
sg6
F51870.0
sg7
I00
sg8
F10.057358691295487
sg9
F-10800.0
sg10
S'dick.westfahl@enron.com'
p82
sg12
F35.0
sg13
F0.0
sg14
F740.5
sg15
Fnan
sg16
F41.0
sg17
F401130.0
sg18
F0.0
sg19
F750000.0
sg20
F384930.0
sg21
F8.0
sg22
F256191.0
sg23
F384930.0
sg24
F63744.0
sg25
F762135.0
sg26
F0.0
sg27
F66.10439568709847
ssS'WALTERS GARETH W'
p83
(dp84
g3
F1211.0
sg4
F53625.0
sg5
F2.584537105201731
sg6
F33785.0
sg7
I00
sg8
F10.057358691295487
sg9
F0.0
sg10
Fnan
sg12
F35.0
sg13
F0.0
sg14
F740.5
sg15
Fnan
sg16
F41.0
sg17
F0.0
sg18
F0.0
sg19
F750000.0
sg20
F1030329.0
sg21
F8.0
sg22
F0.0
sg23
F0.0
sg24
F258741.0
sg25
F87410.0
sg26
F1030329.0
sg27
F66.10439568709847
ssS'WALLS JR ROBERT H'
p85
(dp86
g3
F671.0
sg4
F0.0
sg5
F2.533532041728763
sg6
F50936.0
sg7
I00
sg8
F0.0
sg9
F0.0
sg10
S'rob.walls@enron.com'
p87
sg12
F17.0
sg13
F0.0
sg14
F215.0
sg15
Fnan
sg16
F146.0
sg17
F2.0
sg18
F0.0
sg19
F850000.0
sg20
F5898997.0
sg21
F0.0
sg22
F540751.0
sg23
F1552453.0
sg24
F357091.0
sg25
F1798780.0
sg26
F4346544.0
sg27
F32.04172876304024
ssS'KITCHEN LOUISE'
p88
(dp89
g3
F8305.0
sg4
F0.0
sg5
F3.0222757375075253
sg6
F5774.0
sg7
I00
sg8
F11.226851851851851
sg9
F0.0
sg10
S'louise.kitchen@enron.com'
p90
sg12
F251.0
sg13
F0.0
sg14
F3669.0
sg15
Fnan
sg16
F1728.0
sg17
F93925.0
sg18
F0.0
sg19
F3100000.0
sg20
F547143.0
sg21
F194.0
sg22
F0.0
sg23
F466101.0
sg24
F271442.0
sg25
F3471141.0
sg26
F81042.0
sg27
F44.1782059000602
ssS'CHAN RONNIE'
p91
(dp92
g3
F1211.0
sg4
F0.0
sg5
F2.584537105201731
sg6
F0.0
sg7
I00
sg8
F10.057358691295487
sg9
F-98784.0
sg10
Fnan
sg12
F35.0
sg13
F-32460.0
sg14
F740.5
sg15
Fnan
sg16
F41.0
sg17
F0.0
sg18
F98784.0
sg19
F750000.0
sg20
F0.0
sg21
F8.0
sg22
F0.0
sg23
F32460.0
sg24
F258741.0
sg25
F0.0
sg26
F0.0
sg27
F66.10439568709847
ssS'BELFER ROBERT'
p93
(dp94
g3
F1211.0
sg4
F-102500.0
sg5
F2.584537105201731
sg6
F0.0
sg7
I00
sg8
F10.057358691295487
sg9
F0.0
sg10
Fnan
sg12
F35.0
sg13
F44093.0
sg14
F740.5
sg15
Fnan
sg16
F41.0
sg17
F0.0
sg18
F3285.0
sg19
F750000.0
sg20
F-44093.0
sg21
F8.0
sg22
F0.0
sg23
F0.0
sg24
F258741.0
sg25
F102500.0
sg26
F3285.0
sg27
F66.10439568709847
ssS'SHANKMAN JEFFREY A'
p95
(dp96
g3
F3221.0
sg4
F0.0
sg5
F2.9183483390251475
sg6
F178979.0
sg7
I00
sg8
F3.0958597538232002
sg9
F0.0
sg10
S'jeffrey.shankman@enron.com'
p97
sg12
F94.0
sg13
F0.0
sg14
F1730.0
sg15
Fnan
sg16
F2681.0
sg17
F1191.0
sg18
F0.0
sg19
F2000000.0
sg20
F2072035.0
sg21
F83.0
sg22
F554422.0
sg23
F630137.0
sg24
F304110.0
sg25
F3038702.0
sg26
F1441898.0
sg27
F53.71002794163303
ssS'WODRASKA JOHN'
p98
(dp99
g3
F1211.0
sg4
F0.0
sg5
F2.584537105201731
sg6
F0.0
sg7
I00
sg8
F10.057358691295487
sg9
F0.0
sg10
S'john.wodraska@enron.com'
p100
sg12
F35.0
sg13
F0.0
sg14
F740.5
sg15
Fnan
sg16
F41.0
sg17
F189583.0
sg18
F0.0
sg19
F750000.0
sg20
F0.0
sg21
F8.0
sg22
F0.0
sg23
F0.0
sg24
F258741.0
sg25
F189583.0
sg26
F0.0
sg27
F66.10439568709847
ssS'BERGSIEKER RICHARD P'
p101
(dp102
g3
F383.0
sg4
F0.0
sg5
F1.0443864229765014
sg6
F59175.0
sg7
I00
sg8
F0.0
sg9
F-485813.0
sg10
S'rick.bergsieker@enron.com'
p103
sg12
F4.0
sg13
F0.0
sg14
F233.0
sg15
Fnan
sg16
F59.0
sg17
F427316.0
sg18
F0.0
sg19
F250000.0
sg20
F659249.0
sg21
F0.0
sg22
F180250.0
sg23
F659249.0
sg24
F187922.0
sg25
F618850.0
sg26
F0.0
sg27
F60.835509138381205
ssS'URQUHART JOHN A'
p104
(dp105
g3
F1211.0
sg4
F0.0
sg5
F2.584537105201731
sg6
F228656.0
sg7
I00
sg8
F10.057358691295487
sg9
F-36666.0
sg10
Fnan
sg12
F35.0
sg13
F0.0
sg14
F740.5
sg15
Fnan
sg16
F41.0
sg17
F0.0
sg18
F36666.0
sg19
F750000.0
sg20
F0.0
sg21
F8.0
sg22
F0.0
sg23
F0.0
sg24
F258741.0
sg25
F228656.0
sg26
F0.0
sg27
F66.10439568709847
ssS'BIBI PHILIPPE A'
p106
(dp107
g3
F1607.0
sg4
F0.0
sg5
F1.4312383322962041
sg6
F38559.0
sg7
I00
sg8
F20.0
sg9
F0.0
sg10
S'philippe.bibi@enron.com'
p108
sg12
F23.0
sg13
F0.0
sg14
F1336.0
sg15
Fnan
sg16
F40.0
sg17
F425688.0
sg18
F0.0
sg19
F1000000.0
sg20
F1843816.0
sg21
F8.0
sg22
F369721.0
sg23
F378082.0
sg24
F213625.0
sg25
F2047593.0
sg26
F1465734.0
sg27
F83.13627878033603
ssS'PIRO JIM'
p109
(dp110
g3
F58.0
sg4
F0.0
sg5
F0.0
sg6
F0.0
sg7
I00
sg8
F6.25
sg9
F0.0
sg10
S'jim.piro@enron.com'
p111
sg12
F0.0
sg13
F0.0
sg14
F3.0
sg15
Fnan
sg16
F16.0
sg17
F0.0
sg18
F0.0
sg19
F750000.0
sg20
F47304.0
sg21
F1.0
sg22
F0.0
sg23
F47304.0
sg24
F258741.0
sg25
F0.0
sg26
F0.0
sg27
F5.172413793103448
ssS'RIEKER PAULA H'
p112
(dp113
g3
F1328.0
sg4
F214678.0
sg5
F2.635542168674699
sg6
F33271.0
sg7
I01
sg8
F58.536585365853654
sg9
F-100000.0
sg10
S'paula.rieker@enron.com'
p114
sg12
F35.0
sg13
F0.0
sg14
F1258.0
sg15
Fnan
sg16
F82.0
sg17
F1950.0
sg18
F0.0
sg19
F700000.0
sg20
F1918887.0
sg21
F48.0
sg22
F0.0
sg23
F283649.0
sg24
F249201.0
sg25
F1099100.0
sg26
F1635238.0
sg27
F94.7289156626506
ssS'WHALEY DAVID A'
p115
(dp116
g3
F1211.0
sg4
F0.0
sg5
F2.584537105201731
sg6
F0.0
sg7
I00
sg8
F10.057358691295487
sg9
F0.0
sg10
Fnan
sg12
F35.0
sg13
F0.0
sg14
F740.5
sg15
Fnan
sg16
F41.0
sg17
F0.0
sg18
F0.0
sg19
F750000.0
sg20
F98718.0
sg21
F8.0
sg22
F0.0
sg23
F0.0
sg24
F258741.0
sg25
F0.0
sg26
F98718.0
sg27
F66.10439568709847
ssS'BECK SALLY W'
p117
(dp118
g3
F7315.0
sg4
F0.0
sg5
F1.9685577580314422
sg6
F37172.0
sg7
I00
sg8
F8.887865530739122
sg9
F0.0
sg10
S'sally.beck@enron.com'
p119
sg12
F144.0
sg13
F0.0
sg14
F2639.0
sg15
Fnan
sg16
F4343.0
sg17
F566.0
sg18
F0.0
sg19
F700000.0
sg20
F126027.0
sg21
F386.0
sg22
F0.0
sg23
F126027.0
sg24
F231330.0
sg25
F969068.0
sg26
F0.0
sg27
F36.07655502392345
ssS'HAUG DAVID L'
p120
(dp121
g3
F573.0
sg4
F0.0
sg5
F0.6980802792321117
sg6
F475.0
sg7
I00
sg8
F36.84210526315789
sg9
F0.0
sg10
S'david.haug@enron.com'
p122
sg12
F4.0
sg13
F0.0
sg14
F471.0
sg15
Fnan
sg16
F19.0
sg17
F0.0
sg18
F0.0
sg19
F750000.0
sg20
F2217299.0
sg21
F7.0
sg22
F0.0
sg23
F2217299.0
sg24
F258741.0
sg25
F475.0
sg26
F0.0
sg27
F82.19895287958116
ssS'ECHOLS JOHN B'
p123
(dp124
g3
F1211.0
sg4
F0.0
sg5
F2.584537105201731
sg6
F21530.0
sg7
I00
sg8
F10.057358691295487
sg9
F0.0
sg10
S'john.echols@enron.com'
p125
sg12
F35.0
sg13
F0.0
sg14
F740.5
sg15
Fnan
sg16
F41.0
sg17
F53775.0
sg18
F0.0
sg19
F200000.0
sg20
F1008941.0
sg21
F8.0
sg22
F2234774.0
sg23
F407503.0
sg24
F182245.0
sg25
F2692324.0
sg26
F601438.0
sg27
F66.10439568709847
ssS'MENDELSOHN JOHN'
p126
(dp127
g3
F1211.0
sg4
F0.0
sg5
F2.584537105201731
sg6
F148.0
sg7
I00
sg8
F10.057358691295487
sg9
F-103750.0
sg10
Fnan
sg12
F35.0
sg13
F0.0
sg14
F740.5
sg15
Fnan
sg16
F41.0
sg17
F0.0
sg18
F103750.0
sg19
F750000.0
sg20
F0.0
sg21
F8.0
sg22
F0.0
sg23
F0.0
sg24
F258741.0
sg25
F148.0
sg26
F0.0
sg27
F66.10439568709847
ssS'HICKERSON GARY J'
p128
(dp129
g3
F1320.0
sg4
F0.0
sg5
F3.0303030303030303
sg6
F98849.0
sg7
I00
sg8
F3.7037037037037033
sg9
F0.0
sg10
S'gary.hickerson@enron.com'
p130
sg12
F40.0
sg13
F0.0
sg14
F900.0
sg15
Fnan
sg16
F27.0
sg17
F1936.0
sg18
F0.0
sg19
F1700000.0
sg20
F441096.0
sg21
F1.0
sg22
F69223.0
sg23
F441096.0
sg24
F211788.0
sg25
F2081796.0
sg26
F0.0
sg27
F68.18181818181817
ssS'CLINE KENNETH W'
p131
(dp132
g3
F1211.0
sg4
F0.0
sg5
F2.584537105201731
sg6
F0.0
sg7
I00
sg8
F10.057358691295487
sg9
F0.0
sg10
Fnan
sg12
F35.0
sg13
F-472568.0
sg14
F740.5
sg15
Fnan
sg16
F41.0
sg17
F0.0
sg18
F0.0
sg19
F750000.0
sg20
F189518.0
sg21
F8.0
sg22
F0.0
sg23
F662086.0
sg24
F258741.0
sg25
F0.0
sg26
F0.0
sg27
F66.10439568709847
ssS'LEWIS RICHARD'
p133
(dp134
g3
F952.0
sg4
F0.0
sg5
F1.050420168067227
sg6
F0.0
sg7
I00
sg8
F0.0
sg9
F0.0
sg10
S'richard.lewis@enron.com'
p135
sg12
F10.0
sg13
F0.0
sg14
F739.0
sg15
Fnan
sg16
F26.0
sg17
F0.0
sg18
F0.0
sg19
F750000.0
sg20
F850477.0
sg21
F0.0
sg22
F0.0
sg23
F0.0
sg24
F258741.0
sg25
F0.0
sg26
F850477.0
sg27
F77.62605042016807
ssS'HAYES ROBERT E'
p136
(dp137
g3
F504.0
sg4
F7961.0
sg5
F3.1746031746031744
sg6
F0.0
sg7
I00
sg8
F0.0
sg9
F0.0
sg10
S'robert.hayes@enron.com'
p138
sg12
F16.0
sg13
F0.0
sg14
F50.0
sg15
Fnan
sg16
F12.0
sg17
F0.0
sg18
F0.0
sg19
F750000.0
sg20
F151418.0
sg21
F0.0
sg22
F0.0
sg23
F151418.0
sg24
F258741.0
sg25
F7961.0
sg26
F0.0
sg27
F9.920634920634921
ssS'KOPPER MICHAEL J'
p139
(dp140
g3
F1211.0
sg4
F0.0
sg5
F2.584537105201731
sg6
F118134.0
sg7
I01
sg8
F10.057358691295487
sg9
F0.0
sg10
S'michael.kopper@enron.com'
p141
sg12
F35.0
sg13
F0.0
sg14
F740.5
sg15
Fnan
sg16
F41.0
sg17
F907502.0
sg18
F0.0
sg19
F800000.0
sg20
F985032.0
sg21
F8.0
sg22
F602671.0
sg23
F985032.0
sg24
F224305.0
sg25
F2652612.0
sg26
F0.0
sg27
F66.10439568709847
ssS'LEFF DANIEL P'
p142
(dp143
g3
F2822.0
sg4
F0.0
sg5
F2.374202693125443
sg6
F0.0
sg7
I00
sg8
F22.22222222222222
sg9
F0.0
sg10
S'dan.leff@enron.com'
p144
sg12
F67.0
sg13
F0.0
sg14
F2672.0
sg15
Fnan
sg16
F63.0
sg17
F3083.0
sg18
F0.0
sg19
F1000000.0
sg20
F360528.0
sg21
F14.0
sg22
F1387399.0
sg23
F360528.0
sg24
F273746.0
sg25
F2664228.0
sg26
F0.0
sg27
F94.68462083628633
ssS'LAVORATO JOHN J'
p145
(dp146
g3
F7259.0
sg4
F0.0
sg5
F7.273729163796666
sg6
F49537.0
sg7
I00
sg8
F15.899419729206961
sg9
F0.0
sg10
S'john.lavorato@enron.com'
p147
sg12
F528.0
sg13
F0.0
sg14
F3962.0
sg15
Fnan
sg16
F2585.0
sg17
F1552.0
sg18
F0.0
sg19
F8000000.0
sg20
F5167144.0
sg21
F411.0
sg22
F2035380.0
sg23
F1008149.0
sg24
F339288.0
sg25
F10425757.0
sg26
F4158995.0
sg27
F54.58052073288332
ssS'BERBERIAN DAVID'
p148
(dp149
g3
F1211.0
sg4
F0.0
sg5
F2.584537105201731
sg6
F11892.0
sg7
I00
sg8
F10.057358691295487
sg9
F0.0
sg10
S'david.berberian@enron.com'
p150
sg12
F35.0
sg13
F0.0
sg14
F740.5
sg15
Fnan
sg16
F41.0
sg17
F0.0
sg18
F0.0
sg19
F750000.0
sg20
F2493616.0
sg21
F8.0
sg22
F0.0
sg23
F869220.0
sg24
F216582.0
sg25
F228474.0
sg26
F1624396.0
sg27
F66.10439568709847
ssS'DETMERING TIMOTHY J'
p151
(dp152
g3
F1211.0
sg4
F875307.0
sg5
F2.584537105201731
sg6
F52255.0
sg7
I00
sg8
F10.057358691295487
sg9
F-775241.0
sg10
S'timothy.detmering@enron.com'
p153
sg12
F35.0
sg13
F-315068.0
sg14
F740.5
sg15
Fnan
sg16
F41.0
sg17
F1105.0
sg18
F0.0
sg19
F425000.0
sg20
F2027865.0
sg21
F8.0
sg22
F415657.0
sg23
F315068.0
sg24
F210500.0
sg25
F1204583.0
sg26
F2027865.0
sg27
F66.10439568709847
ssS'WAKEHAM JOHN'
p154
(dp155
g3
F1211.0
sg4
F0.0
sg5
F2.584537105201731
sg6
F103773.0
sg7
I00
sg8
F10.057358691295487
sg9
F0.0
sg10
Fnan
sg12
F35.0
sg13
F0.0
sg14
F740.5
sg15
Fnan
sg16
F41.0
sg17
F0.0
sg18
F109298.0
sg19
F750000.0
sg20
F0.0
sg21
F8.0
sg22
F0.0
sg23
F0.0
sg24
F258741.0
sg25
F213071.0
sg26
F0.0
sg27
F66.10439568709847
ssS'POWERS WILLIAM'
p156
(dp157
g3
F653.0
sg4
F0.0
sg5
F0.0
sg6
F0.0
sg7
I00
sg8
F0.0
sg9
F-17500.0
sg10
S'ken.powers@enron.com'
p158
sg12
F0.0
sg13
F0.0
sg14
F12.0
sg15
Fnan
sg16
F26.0
sg17
F0.0
sg18
F17500.0
sg19
F750000.0
sg20
F0.0
sg21
F0.0
sg22
F0.0
sg23
F0.0
sg24
F258741.0
sg25
F0.0
sg26
F0.0
sg27
F1.8376722817764166
ssS'GOLD JOSEPH'
p159
(dp160
g3
F1211.0
sg4
F0.0
sg5
F2.584537105201731
sg6
F0.0
sg7
I00
sg8
F10.057358691295487
sg9
F0.0
sg10
S'joe.gold@enron.com'
p161
sg12
F35.0
sg13
F0.0
sg14
F740.5
sg15
Fnan
sg16
F41.0
sg17
F819288.0
sg18
F0.0
sg19
F750000.0
sg20
F877611.0
sg21
F8.0
sg22
F304805.0
sg23
F441096.0
sg24
F272880.0
sg25
F2146973.0
sg26
F436515.0
sg27
F66.10439568709847
ssS'BANNANTINE JAMES M'
p162
(dp163
g3
F566.0
sg4
F0.0
sg5
F6.890459363957597
sg6
F56301.0
sg7
I00
sg8
F0.0
sg9
F-5104.0
sg10
S'james.bannantine@enron.com'
p164
sg12
F39.0
sg13
F-560222.0
sg14
F465.0
sg15
Fnan
sg16
F29.0
sg17
F864523.0
sg18
F0.0
sg19
F750000.0
sg20
F5243487.0
sg21
F0.0
sg22
F0.0
sg23
F1757552.0
sg24
F477.0
sg25
F916197.0
sg26
F4046157.0
sg27
F82.15547703180212
ssS'DUNCAN JOHN H'
p165
(dp166
g3
F1211.0
sg4
F0.0
sg5
F2.584537105201731
sg6
F0.0
sg7
I00
sg8
F10.057358691295487
sg9
F-25000.0
sg10
Fnan
sg12
F35.0
sg13
F0.0
sg14
F740.5
sg15
Fnan
sg16
F41.0
sg17
F0.0
sg18
F102492.0
sg19
F750000.0
sg20
F371750.0
sg21
F8.0
sg22
F0.0
sg23
F0.0
sg24
F258741.0
sg25
F77492.0
sg26
F371750.0
sg27
F66.10439568709847
ssS'SHAPIRO RICHARD S'
p167
(dp168
g3
F15149.0
sg4
F0.0
sg5
F0.48848108786058486
sg6
F137767.0
sg7
I00
sg8
F5.349794238683128
sg9
F0.0
sg10
S'richard.shapiro@enron.com'
p169
sg12
F74.0
sg13
F0.0
sg14
F4527.0
sg15
Fnan
sg16
F1215.0
sg17
F705.0
sg18
F0.0
sg19
F650000.0
sg20
F987001.0
sg21
F65.0
sg22
F0.0
sg23
F379164.0
sg24
F269076.0
sg25
F1057548.0
sg26
F607837.0
sg27
F29.883160604660375
ssS'SHERRIFF JOHN R'
p170
(dp171
g3
F3187.0
sg4
F0.0
sg5
F0.8785691873235018
sg6
F0.0
sg7
I00
sg8
F25.0
sg9
F0.0
sg10
S'john.sherriff@enron.com'
p172
sg12
F28.0
sg13
F0.0
sg14
F2103.0
sg15
Fnan
sg16
F92.0
sg17
F1852186.0
sg18
F0.0
sg19
F1500000.0
sg20
F3128982.0
sg21
F23.0
sg22
F554422.0
sg23
F1293424.0
sg24
F428780.0
sg25
F4335388.0
sg26
F1835558.0
sg27
F65.98682146219015
ssS'SHELBY REX'
p173
(dp174
g3
F225.0
sg4
F0.0
sg5
F5.777777777777778
sg6
F22884.0
sg7
I01
sg8
F35.8974358974359
sg9
F-4167.0
sg10
S'rex.shelby@enron.com'
p175
sg12
F13.0
sg13
F0.0
sg14
F91.0
sg15
Fnan
sg16
F39.0
sg17
F1573324.0
sg18
F0.0
sg19
F200000.0
sg20
F2493616.0
sg21
F14.0
sg22
F0.0
sg23
F869220.0
sg24
F211844.0
sg25
F2003885.0
sg26
F1624396.0
sg27
F40.44444444444444
ssS'LEMAISTRE CHARLES'
p176
(dp177
g3
F1211.0
sg4
F0.0
sg5
F2.584537105201731
sg6
F0.0
sg7
I00
sg8
F10.057358691295487
sg9
F-25000.0
sg10
Fnan
sg12
F35.0
sg13
F0.0
sg14
F740.5
sg15
Fnan
sg16
F41.0
sg17
F0.0
sg18
F112492.0
sg19
F750000.0
sg20
F412878.0
sg21
F8.0
sg22
F0.0
sg23
F0.0
sg24
F258741.0
sg25
F87492.0
sg26
F412878.0
sg27
F66.10439568709847
ssS'DEFFNER JOSEPH M'
p178
(dp179
g3
F714.0
sg4
F0.0
sg5
F16.106442577030812
sg6
F41626.0
sg7
I00
sg8
F5.405405405405405
sg9
F0.0
sg10
S'joseph.deffner@enron.com'
p180
sg12
F115.0
sg13
F0.0
sg14
F552.0
sg15
Fnan
sg16
F74.0
sg17
F25553.0
sg18
F0.0
sg19
F600000.0
sg20
F159211.0
sg21
F4.0
sg22
F335349.0
sg23
F141833.0
sg24
F206121.0
sg25
F1208649.0
sg26
F17378.0
sg27
F77.31092436974791
ssS'KISHKILL JOSEPH G'
p181
(dp182
g3
F1211.0
sg4
F0.0
sg5
F2.584537105201731
sg6
F116335.0
sg7
I00
sg8
F10.057358691295487
sg9
F-51042.0
sg10
S'joe.kishkill@enron.com'
p183
sg12
F35.0
sg13
F0.0
sg14
F740.5
sg15
Fnan
sg16
F41.0
sg17
F465357.0
sg18
F0.0
sg19
F750000.0
sg20
F1034346.0
sg21
F8.0
sg22
F0.0
sg23
F1034346.0
sg24
F174246.0
sg25
F704896.0
sg26
F0.0
sg27
F66.10439568709847
ssS'WHALLEY LAWRENCE G'
p184
(dp185
g3
F6019.0
sg4
F0.0
sg5
F3.090214321315833
sg6
F57838.0
sg7
I00
sg8
F4.316546762589928
sg9
F0.0
sg10
S'greg.whalley@enron.com'
p186
sg12
F186.0
sg13
F0.0
sg14
F3920.0
sg15
Fnan
sg16
F556.0
sg17
F301026.0
sg18
F0.0
sg19
F3000000.0
sg20
F6079137.0
sg21
F24.0
sg22
F808346.0
sg23
F2796177.0
sg24
F510364.0
sg25
F4677574.0
sg26
F3282960.0
sg27
F65.12709752450573
ssS'MCCARTY DANNY J'
p187
(dp188
g3
F1433.0
sg4
F0.0
sg5
F1.7445917655268668
sg6
F0.0
sg7
I00
sg8
F0.9302325581395349
sg9
F0.0
sg10
S'danny.mccarty@enron.com'
p189
sg12
F25.0
sg13
F0.0
sg14
F508.0
sg15
Fnan
sg16
F215.0
sg17
F0.0
sg18
F0.0
sg19
F750000.0
sg20
F758931.0
sg21
F2.0
sg22
F0.0
sg23
F94556.0
sg24
F258741.0
sg25
F0.0
sg26
F664375.0
sg27
F35.45010467550593
ssS'MCCONNELL MICHAEL S'
p190
(dp191
g3
F3329.0
sg4
F0.0
sg5
F2.763592670471613
sg6
F81364.0
sg7
I00
sg8
F7.075127644055435
sg9
F0.0
sg10
S'mike.mcconnell@enron.com'
p192
sg12
F92.0
sg13
F0.0
sg14
F2189.0
sg15
Fnan
sg16
F2742.0
sg17
F540.0
sg18
F0.0
sg19
F1100000.0
sg20
F3101279.0
sg21
F194.0
sg22
F554422.0
sg23
F1478269.0
sg24
F365038.0
sg25
F2101364.0
sg26
F1623010.0
sg27
F65.7554821267648
ssS'DELAINEY DAVID W'
p193
(dp194
g3
F3093.0
sg4
F0.0
sg5
F2.133850630455868
sg6
F86174.0
sg7
I01
sg8
F19.843597262952102
sg9
F0.0
sg10
S'david.delainey@enron.com'
p195
sg12
F66.0
sg13
F0.0
sg14
F2097.0
sg15
Fnan
sg16
F3069.0
sg17
F1661.0
sg18
F0.0
sg19
F3000000.0
sg20
F3614261.0
sg21
F609.0
sg22
F1294981.0
sg23
F1323148.0
sg24
F365163.0
sg25
F4747979.0
sg26
F2291113.0
sg27
F67.79825412221145
ssS'SULLIVAN-SHAKLOVITZ COLLEEN'
p196
(dp197
g3
F1211.0
sg4
F181993.0
sg5
F2.584537105201731
sg6
F0.0
sg7
I00
sg8
F10.057358691295487
sg9
F0.0
sg10
Fnan
sg12
F35.0
sg13
F0.0
sg14
F740.5
sg15
Fnan
sg16
F41.0
sg17
F162.0
sg18
F0.0
sg19
F100000.0
sg20
F1362375.0
sg21
F8.0
sg22
F554422.0
sg23
F0.0
sg24
F162779.0
sg25
F999356.0
sg26
F1362375.0
sg27
F66.10439568709847
ssS'WROBEL BRUCE'
p198
(dp199
g3
F1211.0
sg4
F0.0
sg5
F2.584537105201731
sg6
F0.0
sg7
I00
sg8
F10.057358691295487
sg9
F0.0
sg10
Fnan
sg12
F35.0
sg13
F0.0
sg14
F740.5
sg15
Fnan
sg16
F41.0
sg17
F0.0
sg18
F0.0
sg19
F750000.0
sg20
F139130.0
sg21
F8.0
sg22
F0.0
sg23
F0.0
sg24
F258741.0
sg25
F0.0
sg26
F139130.0
sg27
F66.10439568709847
ssS'LINDHOLM TOD A'
p200
(dp201
g3
F1211.0
sg4
F204075.0
sg5
F2.584537105201731
sg6
F57727.0
sg7
I00
sg8
F10.057358691295487
sg9
F0.0
sg10
S'tod.lindholm@enron.com'
p202
sg12
F35.0
sg13
F0.0
sg14
F740.5
sg15
Fnan
sg16
F41.0
sg17
F2630.0
sg18
F0.0
sg19
F200000.0
sg20
F3064208.0
sg21
F8.0
sg22
F175000.0
sg23
F514847.0
sg24
F236457.0
sg25
F875889.0
sg26
F2549361.0
sg27
F66.10439568709847
ssS'MEYER JEROME J'
p203
(dp204
g3
F1211.0
sg4
F0.0
sg5
F2.584537105201731
sg6
F2151.0
sg7
I00
sg8
F10.057358691295487
sg9
F-38346.0
sg10
Fnan
sg12
F35.0
sg13
F0.0
sg14
F740.5
sg15
Fnan
sg16
F41.0
sg17
F0.0
sg18
F38346.0
sg19
F750000.0
sg20
F0.0
sg21
F8.0
sg22
F0.0
sg23
F0.0
sg24
F258741.0
sg25
F2151.0
sg26
F0.0
sg27
F66.10439568709847
ssS'LAY KENNETH L'
p205
(dp206
g3
F4273.0
sg4
F202911.0
sg5
F2.8785396676807866
sg6
F99832.0
sg7
I01
sg8
F44.44444444444444
sg9
F-300000.0
sg10
S'kenneth.lay@enron.com'
p207
sg12
F123.0
sg13
F0.0
sg14
F2411.0
sg15
F81525000.0
sg16
F36.0
sg17
F10359729.0
sg18
F0.0
sg19
F7000000.0
sg20
F49110078.0
sg21
F16.0
sg22
F3600000.0
sg23
F14761694.0
sg24
F1072321.0
sg25
F103559793.0
sg26
F34348384.0
sg27
F56.42405803884858
ssS'BUTTS ROBERT H'
p208
(dp209
g3
F1211.0
sg4
F0.0
sg5
F2.584537105201731
sg6
F9410.0
sg7
I00
sg8
F10.057358691295487
sg9
F-75000.0
sg10
S'bob.butts@enron.com'
p210
sg12
F35.0
sg13
F0.0
sg14
F740.5
sg15
Fnan
sg16
F41.0
sg17
F150656.0
sg18
F0.0
sg19
F750000.0
sg20
F417619.0
sg21
F8.0
sg22
F175000.0
sg23
F417619.0
sg24
F261516.0
sg25
F1271582.0
sg26
F0.0
sg27
F66.10439568709847
ssS'OLSON CINDY K'
p211
(dp212
g3
F1184.0
sg4
F77716.0
sg5
F1.6891891891891893
sg6
F63791.0
sg7
I00
sg8
F28.846153846153843
sg9
F0.0
sg10
S'cindy.olson@enron.com'
p213
sg12
F20.0
sg13
F0.0
sg14
F856.0
sg15
Fnan
sg16
F52.0
sg17
F972.0
sg18
F0.0
sg19
F750000.0
sg20
F2606763.0
sg21
F15.0
sg22
F100000.0
sg23
F969729.0
sg24
F329078.0
sg25
F1321557.0
sg26
F1637034.0
sg27
F72.2972972972973
ssS'MCDONALD REBECCA'
p214
(dp215
g3
F894.0
sg4
F0.0
sg5
F6.0402684563758395
sg6
F0.0
sg7
I00
sg8
F7.6923076923076925
sg9
F0.0
sg10
S'rebecca.mcdonald@enron.com'
p216
sg12
F54.0
sg13
F0.0
sg14
F720.0
sg15
Fnan
sg16
F13.0
sg17
F0.0
sg18
F0.0
sg19
F750000.0
sg20
F1691366.0
sg21
F1.0
sg22
F0.0
sg23
F934065.0
sg24
F258741.0
sg25
F0.0
sg26
F757301.0
sg27
F80.53691275167785
ssS'CUMBERLAND MICHAEL S'
p217
(dp218
g3
F1211.0
sg4
F0.0
sg5
F2.584537105201731
sg6
F22344.0
sg7
I00
sg8
F10.057358691295487
sg9
F0.0
sg10
Fnan
sg12
F35.0
sg13
F0.0
sg14
F740.5
sg15
Fnan
sg16
F41.0
sg17
F713.0
sg18
F0.0
sg19
F325000.0
sg20
F207940.0
sg21
F8.0
sg22
F275000.0
sg23
F207940.0
sg24
F184899.0
sg25
F807956.0
sg26
F0.0
sg27
F66.10439568709847
ssS'GAHN ROBERT S'
p219
(dp220
g3
F1211.0
sg4
F73122.0
sg5
F2.584537105201731
sg6
F50080.0
sg7
I00
sg8
F10.057358691295487
sg9
F-1042.0
sg10
Fnan
sg12
F35.0
sg13
F0.0
sg14
F740.5
sg15
Fnan
sg16
F41.0
sg17
F76547.0
sg18
F0.0
sg19
F509870.0
sg20
F318607.0
sg21
F8.0
sg22
F0.0
sg23
F235370.0
sg24
F192008.0
sg25
F900585.0
sg26
F83237.0
sg27
F66.10439568709847
ssS'MCCLELLAN GEORGE'
p221
(dp222
g3
F1744.0
sg4
F0.0
sg5
F2.981651376146789
sg6
F228763.0
sg7
I00
sg8
F0.0
sg9
F-125000.0
sg10
S'george.mcclellan@enron.com'
p223
sg12
F52.0
sg13
F0.0
sg14
F1469.0
sg15
Fnan
sg16
F49.0
sg17
F51587.0
sg18
F0.0
sg19
F900000.0
sg20
F947861.0
sg21
F0.0
sg22
F0.0
sg23
F441096.0
sg24
F263413.0
sg25
F1318763.0
sg26
F506765.0
sg27
F84.23165137614679
ssS'HERMANN ROBERT J'
p224
(dp225
g3
F1211.0
sg4
F0.0
sg5
F2.584537105201731
sg6
F48357.0
sg7
I00
sg8
F10.057358691295487
sg9
F-280000.0
sg10
S'robert.hermann@enron.com'
p226
sg12
F35.0
sg13
F0.0
sg14
F740.5
sg15
Fnan
sg16
F41.0
sg17
F416441.0
sg18
F0.0
sg19
F700000.0
sg20
F668132.0
sg21
F8.0
sg22
F150000.0
sg23
F480632.0
sg24
F262663.0
sg25
F1297461.0
sg26
F187500.0
sg27
F66.10439568709847
ssS'SCRIMSHAW MATTHEW'
p227
(dp228
g3
F1211.0
sg4
F0.0
sg5
F2.584537105201731
sg6
F0.0
sg7
I00
sg8
F10.057358691295487
sg9
F0.0
sg10
S'matthew.scrimshaw@enron.com'
p229
sg12
F35.0
sg13
F0.0
sg14
F740.5
sg15
Fnan
sg16
F41.0
sg17
F0.0
sg18
F0.0
sg19
F750000.0
sg20
F759557.0
sg21
F8.0
sg22
F0.0
sg23
F0.0
sg24
F258741.0
sg25
F0.0
sg26
F759557.0
sg27
F66.10439568709847
ssS'GATHMANN WILLIAM D'
p230
(dp231
g3
F1211.0
sg4
F0.0
sg5
F2.584537105201731
sg6
F0.0
sg7
I00
sg8
F10.057358691295487
sg9
F0.0
sg10
Fnan
sg12
F35.0
sg13
F-72419.0
sg14
F740.5
sg15
Fnan
sg16
F41.0
sg17
F0.0
sg18
F0.0
sg19
F750000.0
sg20
F1945360.0
sg21
F8.0
sg22
F0.0
sg23
F264013.0
sg24
F258741.0
sg25
F0.0
sg26
F1753766.0
sg27
F66.10439568709847
ssS'HAEDICKE MARK E'
p232
(dp233
g3
F4009.0
sg4
F2157527.0
sg5
F4.489897730107259
sg6
F76169.0
sg7
I00
sg8
F3.1427099433281813
sg9
F-934484.0
sg10
S'mark.haedicke@enron.com'
p234
sg12
F180.0
sg13
F-329825.0
sg14
F1847.0
sg15
Fnan
sg16
F1941.0
sg17
F52382.0
sg18
F0.0
sg19
F1150000.0
sg20
F803094.0
sg21
F61.0
sg22
F983346.0
sg23
F524169.0
sg24
F374125.0
sg25
F3859065.0
sg26
F608750.0
sg27
F46.07133948615615
ssS'BOWEN JR RAYMOND M'
p235
(dp236
g3
F1858.0
sg4
F0.0
sg5
F7.534983853606028
sg6
F65907.0
sg7
I01
sg8
F55.55555555555556
sg9
F-833.0
sg10
S'raymond.bowen@enron.com'
p237
sg12
F140.0
sg13
F0.0
sg14
F1593.0
sg15
Fnan
sg16
F27.0
sg17
F1621.0
sg18
F0.0
sg19
F1350000.0
sg20
F252055.0
sg21
F15.0
sg22
F974293.0
sg23
F252055.0
sg24
F278601.0
sg25
F2669589.0
sg26
F0.0
sg27
F85.73735199138859
ssS'GILLIS JOHN'
p238
(dp239
g3
F1211.0
sg4
F0.0
sg5
F2.584537105201731
sg6
F0.0
sg7
I00
sg8
F10.057358691295487
sg9
F0.0
sg10
Fnan
sg12
F35.0
sg13
F0.0
sg14
F740.5
sg15
Fnan
sg16
F41.0
sg17
F0.0
sg18
F0.0
sg19
F750000.0
sg20
F85641.0
sg21
F8.0
sg22
F0.0
sg23
F75838.0
sg24
F258741.0
sg25
F0.0
sg26
F9803.0
sg27
F66.10439568709847
ssS'FITZGERALD JAY L'
p240
(dp241
g3
F936.0
sg4
F0.0
sg5
F0.10683760683760685
sg6
F23870.0
sg7
I00
sg8
F50.0
sg9
F0.0
sg10
S'jay.fitzgerald@enron.com'
p242
sg12
F1.0
sg13
F0.0
sg14
F723.0
sg15
Fnan
sg16
F16.0
sg17
F285414.0
sg18
F0.0
sg19
F350000.0
sg20
F1621236.0
sg21
F8.0
sg22
F556416.0
sg23
F956775.0
sg24
F199157.0
sg25
F1414857.0
sg26
F664461.0
sg27
F77.24358974358975
ssS'MORAN MICHAEL P'
p243
(dp244
g3
F672.0
sg4
F0.0
sg5
F0.0
sg6
F0.0
sg7
I00
sg8
F0.0
sg9
F0.0
sg10
S'michael.moran@enron.com'
p245
sg12
F0.0
sg13
F0.0
sg14
F127.0
sg15
Fnan
sg16
F19.0
sg17
F0.0
sg18
F0.0
sg19
F750000.0
sg20
F221141.0
sg21
F0.0
sg22
F0.0
sg23
F161602.0
sg24
F258741.0
sg25
F0.0
sg26
F59539.0
sg27
F18.898809523809522
ssS'REDMOND BRIAN L'
p246
(dp247
g3
F1671.0
sg4
F0.0
sg5
F12.208258527827647
sg6
F14689.0
sg7
I00
sg8
F22.171945701357465
sg9
F0.0
sg10
S'brian.redmond@enron.com'
p248
sg12
F204.0
sg13
F0.0
sg14
F1063.0
sg15
Fnan
sg16
F221.0
sg17
F0.0
sg18
F0.0
sg19
F750000.0
sg20
F7890324.0
sg21
F49.0
sg22
F0.0
sg23
F381285.0
sg24
F96840.0
sg25
F111529.0
sg26
F7509039.0
sg27
F63.614602034709755
ssS'BAZELIDES PHILIP J'
p249
(dp250
g3
F1211.0
sg4
F684694.0
sg5
F2.584537105201731
sg6
F0.0
sg7
I00
sg8
F10.057358691295487
sg9
F0.0
sg10
Fnan
sg12
F35.0
sg13
F0.0
sg14
F740.5
sg15
Fnan
sg16
F41.0
sg17
F874.0
sg18
F0.0
sg19
F750000.0
sg20
F1599641.0
sg21
F8.0
sg22
F93750.0
sg23
F0.0
sg24
F80818.0
sg25
F860136.0
sg26
F1599641.0
sg27
F66.10439568709847
ssS'BELDEN TIMOTHY N'
p251
(dp252
g3
F7991.0
sg4
F2144013.0
sg5
F2.85320986109373
sg6
F17355.0
sg7
I01
sg8
F22.31404958677686
sg9
F-2334434.0
sg10
S'tim.belden@enron.com'
p253
sg12
F228.0
sg13
F0.0
sg14
F5521.0
sg15
Fnan
sg16
F484.0
sg17
F210698.0
sg18
F0.0
sg19
F5249999.0
sg20
F1110705.0
sg21
F108.0
sg22
F0.0
sg23
F157569.0
sg24
F213999.0
sg25
F5501630.0
sg26
F953136.0
sg27
F69.09022650481792
ssS'DURAN WILLIAM D'
p254
(dp255
g3
F904.0
sg4
F0.0
sg5
F11.725663716814159
sg6
F25785.0
sg7
I00
sg8
F25.0
sg9
F0.0
sg10
S'w.duran@enron.com'
p256
sg12
F106.0
sg13
F0.0
sg14
F599.0
sg15
Fnan
sg16
F12.0
sg17
F1568.0
sg18
F0.0
sg19
F750000.0
sg20
F1640910.0
sg21
F3.0
sg22
F1105218.0
sg23
F189041.0
sg24
F210692.0
sg25
F2093263.0
sg26
F1451869.0
sg27
F66.26106194690266
ssS'THORN TERENCE H'
p257
(dp258
g3
F266.0
sg4
F16586.0
sg5
F0.0
sg6
F46145.0
sg7
I00
sg8
F0.0
sg9
F0.0
sg10
S'terence.thorn@enron.com'
p259
sg12
F0.0
sg13
F0.0
sg14
F73.0
sg15
Fnan
sg16
F41.0
sg17
F426629.0
sg18
F0.0
sg19
F750000.0
sg20
F4817796.0
sg21
F0.0
sg22
F200000.0
sg23
F365320.0
sg24
F222093.0
sg25
F911453.0
sg26
F4452476.0
sg27
F27.44360902255639
ssS'FASTOW ANDREW S'
p260
(dp261
g3
F1211.0
sg4
F0.0
sg5
F2.584537105201731
sg6
F55921.0
sg7
I01
sg8
F10.057358691295487
sg9
F-1386055.0
sg10
S'andrew.fastow@enron.com'
p262
sg12
F35.0
sg13
F0.0
sg14
F740.5
sg15
Fnan
sg16
F41.0
sg17
F277464.0
sg18
F0.0
sg19
F1300000.0
sg20
F1794412.0
sg21
F8.0
sg22
F1736055.0
sg23
F1794412.0
sg24
F440698.0
sg25
F2424083.0
sg26
F0.0
sg27
F66.10439568709847
ssS'FOY JOE'
p263
(dp264
g3
F57.0
sg4
F181755.0
sg5
F0.0
sg6
F0.0
sg7
I00
sg8
F0.0
sg9
F0.0
sg10
S'tracy.foy@enron.com'
p265
sg12
F0.0
sg13
F0.0
sg14
F2.0
sg15
Fnan
sg16
F13.0
sg17
F0.0
sg18
F0.0
sg19
F750000.0
sg20
F343434.0
sg21
F0.0
sg22
F0.0
sg23
F0.0
sg24
F258741.0
sg25
F181755.0
sg26
F343434.0
sg27
F3.508771929824561
ssS'CALGER CHRISTOPHER F'
p266
(dp267
g3
F2598.0
sg4
F0.0
sg5
F7.659738260200154
sg6
F35818.0
sg7
I01
sg8
F17.36111111111111
sg9
F-262500.0
sg10
S'christopher.calger@enron.com'
p268
sg12
F199.0
sg13
F0.0
sg14
F2188.0
sg15
Fnan
sg16
F144.0
sg17
F486.0
sg18
F0.0
sg19
F1250000.0
sg20
F126027.0
sg21
F25.0
sg22
F375304.0
sg23
F126027.0
sg24
F240189.0
sg25
F1639297.0
sg26
F0.0
sg27
F84.21862971516552
ssS'RICE KENNETH D'
p269
(dp270
g3
F905.0
sg4
F0.0
sg5
F4.640883977900553
sg6
F46950.0
sg7
I01
sg8
F22.22222222222222
sg9
F-3504386.0
sg10
S'ken.rice@enron.com'
p271
sg12
F42.0
sg13
F0.0
sg14
F864.0
sg15
Fnan
sg16
F18.0
sg17
F174839.0
sg18
F0.0
sg19
F1750000.0
sg20
F22542539.0
sg21
F4.0
sg22
F1617011.0
sg23
F2748364.0
sg24
F420636.0
sg25
F505050.0
sg26
F19794175.0
sg27
F95.4696132596685
ssS'KAMINSKI WINCENTY J'
p272
(dp273
g3
F4607.0
sg4
F0.0
sg5
F0.8899500759713479
sg6
F83585.0
sg7
I00
sg8
F1.1901447661469933
sg9
F0.0
sg10
S'vince.kaminski@enron.com'
p274
sg12
F41.0
sg13
F0.0
sg14
F583.0
sg15
Fnan
sg16
F14368.0
sg17
F4669.0
sg18
F0.0
sg19
F400000.0
sg20
F976037.0
sg21
F171.0
sg22
F323466.0
sg23
F126027.0
sg24
F275101.0
sg25
F1086821.0
sg26
F850010.0
sg27
F12.654655958324291
ssS'LOCKHART EUGENE E'
p275
(dp276
g3
F1211.0
sg4
F0.0
sg5
F2.584537105201731
sg6
F0.0
sg7
I00
sg8
F10.057358691295487
sg9
F0.0
sg10
Fnan
sg12
F35.0
sg13
F0.0
sg14
F740.5
sg15
Fnan
sg16
F41.0
sg17
F0.0
sg18
F0.0
sg19
F750000.0
sg20
F0.0
sg21
F8.0
sg22
F0.0
sg23
F0.0
sg24
F258741.0
sg25
F0.0
sg26
F0.0
sg27
F66.10439568709847
ssS'COX DAVID'
p277
(dp278
g3
F102.0
sg4
F0.0
sg5
F0.0
sg6
F27861.0
sg7
I00
sg8
F12.121212121212121
sg9
F-41250.0
sg10
S'chip.cox@enron.com'
p279
sg12
F0.0
sg13
F0.0
sg14
F71.0
sg15
Fnan
sg16
F33.0
sg17
F494.0
sg18
F0.0
sg19
F800000.0
sg20
F495633.0
sg21
F4.0
sg22
F0.0
sg23
F378082.0
sg24
F314288.0
sg25
F1101393.0
sg26
F117551.0
sg27
F69.6078431372549
ssS'OVERDYKE JR JERE C'
p280
(dp281
g3
F1211.0
sg4
F0.0
sg5
F2.584537105201731
sg6
F18834.0
sg7
I00
sg8
F10.057358691295487
sg9
F0.0
sg10
S'jere.overdyke@enron.com'
p282
sg12
F35.0
sg13
F0.0
sg14
F740.5
sg15
Fnan
sg16
F41.0
sg17
F176.0
sg18
F0.0
sg19
F750000.0
sg20
F7307594.0
sg21
F8.0
sg22
F135836.0
sg23
F2041016.0
sg24
F94941.0
sg25
F249787.0
sg26
F5266578.0
sg27
F66.10439568709847
ssS'PEREIRA PAULO V. FERRAZ'
p283
(dp284
g3
F1211.0
sg4
F0.0
sg5
F2.584537105201731
sg6
F27942.0
sg7
I00
sg8
F10.057358691295487
sg9
F-101250.0
sg10
Fnan
sg12
F35.0
sg13
F0.0
sg14
F740.5
sg15
Fnan
sg16
F41.0
sg17
F0.0
sg18
F101250.0
sg19
F750000.0
sg20
F0.0
sg21
F8.0
sg22
F0.0
sg23
F0.0
sg24
F258741.0
sg25
F27942.0
sg26
F0.0
sg27
F66.10439568709847
ssS'STABLER FRANK'
p285
(dp286
g3
F1211.0
sg4
F0.0
sg5
F2.584537105201731
sg6
F16514.0
sg7
I00
sg8
F10.057358691295487
sg9
F0.0
sg10
S'frank.stabler@enron.com'
p287
sg12
F35.0
sg13
F0.0
sg14
F740.5
sg15
Fnan
sg16
F41.0
sg17
F356071.0
sg18
F0.0
sg19
F500000.0
sg20
F511734.0
sg21
F8.0
sg22
F0.0
sg23
F511734.0
sg24
F239502.0
sg25
F1112087.0
sg26
F0.0
sg27
F66.10439568709847
ssS'SKILLING JEFFREY K'
p288
(dp289
g3
F3627.0
sg4
F0.0
sg5
F2.42624758753791
sg6
F29336.0
sg7
I01
sg8
F27.77777777777778
sg9
F0.0
sg10
S'jeff.skilling@enron.com'
p290
sg12
F88.0
sg13
F0.0
sg14
F2042.0
sg15
Fnan
sg16
F108.0
sg17
F22122.0
sg18
F0.0
sg19
F5600000.0
sg20
F26093672.0
sg21
F30.0
sg22
F1920000.0
sg23
F6843672.0
sg24
F1111258.0
sg25
F8682716.0
sg26
F19250000.0
sg27
F56.29997242900468
ssS'BLAKE JR. NORMAN P'
p291
(dp292
g3
F1211.0
sg4
F0.0
sg5
F2.584537105201731
sg6
F1279.0
sg7
I00
sg8
F10.057358691295487
sg9
F-113784.0
sg10
Fnan
sg12
F35.0
sg13
F0.0
sg14
F740.5
sg15
Fnan
sg16
F41.0
sg17
F0.0
sg18
F113784.0
sg19
F750000.0
sg20
F0.0
sg21
F8.0
sg22
F0.0
sg23
F0.0
sg24
F258741.0
sg25
F1279.0
sg26
F0.0
sg27
F66.10439568709847
ssS'SHERRICK JEFFREY B'
p293
(dp294
g3
F613.0
sg4
F0.0
sg5
F6.36215334420881
sg6
F0.0
sg7
I00
sg8
F72.0
sg9
F0.0
sg10
S'jeffrey.sherrick@enron.com'
p295
sg12
F39.0
sg13
F0.0
sg14
F583.0
sg15
Fnan
sg16
F25.0
sg17
F0.0
sg18
F0.0
sg19
F750000.0
sg20
F1832468.0
sg21
F18.0
sg22
F0.0
sg23
F405999.0
sg24
F258741.0
sg25
F0.0
sg26
F1426469.0
sg27
F95.10603588907016
ssS'PRENTICE JAMES'
p296
(dp297
g3
F1211.0
sg4
F564348.0
sg5
F2.584537105201731
sg6
F0.0
sg7
I00
sg8
F10.057358691295487
sg9
F0.0
sg10
S'james.prentice@enron.com'
p298
sg12
F35.0
sg13
F0.0
sg14
F740.5
sg15
Fnan
sg16
F41.0
sg17
F0.0
sg18
F0.0
sg19
F750000.0
sg20
F1095040.0
sg21
F8.0
sg22
F0.0
sg23
F208809.0
sg24
F258741.0
sg25
F564348.0
sg26
F886231.0
sg27
F66.10439568709847
ssS'GRAY RODNEY'
p299
(dp300
g3
F1211.0
sg4
F93585.0
sg5
F2.584537105201731
sg6
F0.0
sg7
I00
sg8
F10.057358691295487
sg9
F0.0
sg10
Fnan
sg12
F35.0
sg13
F0.0
sg14
F740.5
sg15
Fnan
sg16
F41.0
sg17
F680833.0
sg18
F0.0
sg19
F750000.0
sg20
F0.0
sg21
F8.0
sg22
F365625.0
sg23
F0.0
sg24
F6615.0
sg25
F1146658.0
sg26
F0.0
sg27
F66.10439568709847
ssS'PICKERING MARK R'
p301
(dp302
g3
F898.0
sg4
F0.0
sg5
F0.779510022271715
sg6
F31653.0
sg7
I00
sg8
F0.0
sg9
F0.0
sg10
S'mark.pickering@enron.com'
p303
sg12
F7.0
sg13
F0.0
sg14
F728.0
sg15
F400000.0
sg16
F67.0
sg17
F0.0
sg18
F0.0
sg19
F300000.0
sg20
F28798.0
sg21
F0.0
sg22
F0.0
sg23
F0.0
sg24
F655037.0
sg25
F1386690.0
sg26
F28798.0
sg27
F81.06904231625836
ssS'THE TRAVEL AGENCY IN THE PARK'
p304
(dp305
g3
F1211.0
sg4
F0.0
sg5
F2.584537105201731
sg6
F0.0
sg7
I00
sg8
F10.057358691295487
sg9
F0.0
sg10
Fnan
sg12
F35.0
sg13
F0.0
sg14
F740.5
sg15
Fnan
sg16
F41.0
sg17
F362096.0
sg18
F0.0
sg19
F750000.0
sg20
F0.0
sg21
F8.0
sg22
F0.0
sg23
F0.0
sg24
F258741.0
sg25
F362096.0
sg26
F0.0
sg27
F66.10439568709847
ssS'NOLES JAMES L'
p306
(dp307
g3
F1211.0
sg4
F774401.0
sg5
F2.584537105201731
sg6
F0.0
sg7
I00
sg8
F10.057358691295487
sg9
F0.0
sg10
Fnan
sg12
F35.0
sg13
F-94556.0
sg14
F740.5
sg15
Fnan
sg16
F41.0
sg17
F0.0
sg18
F0.0
sg19
F750000.0
sg20
F368705.0
sg21
F8.0
sg22
F0.0
sg23
F463261.0
sg24
F258741.0
sg25
F774401.0
sg26
F0.0
sg27
F66.10439568709847
ssS'KEAN STEVEN J'
p308
(dp309
g3
F12754.0
sg4
F0.0
sg5
F1.0976948408342482
sg6
F41953.0
sg7
I00
sg8
F5.725699067909454
sg9
F0.0
sg10
S'steven.kean@enron.com'
p310
sg12
F140.0
sg13
F0.0
sg14
F3639.0
sg15
Fnan
sg16
F6759.0
sg17
F1231.0
sg18
F0.0
sg19
F1000000.0
sg20
F6153642.0
sg21
F387.0
sg22
F300000.0
sg23
F4131594.0
sg24
F404338.0
sg25
F1747522.0
sg26
F2022048.0
sg27
F28.53222518425592
ssS'FOWLER PEGGY'
p311
(dp312
g3
F517.0
sg4
F0.0
sg5
F0.0
sg6
F0.0
sg7
I00
sg8
F0.0
sg9
F0.0
sg10
S'kulvinder.fowler@enron.com'
p313
sg12
F0.0
sg13
F0.0
sg14
F10.0
sg15
Fnan
sg16
F36.0
sg17
F0.0
sg18
F0.0
sg19
F750000.0
sg20
F1884748.0
sg21
F0.0
sg22
F0.0
sg23
F560170.0
sg24
F258741.0
sg25
F0.0
sg26
F1324578.0
sg27
F1.9342359767891684
ssS'WASAFF GEORGE'
p314
(dp315
g3
F400.0
sg4
F831299.0
sg5
F5.5
sg6
F0.0
sg7
I00
sg8
F23.333333333333332
sg9
F-583325.0
sg10
S'george.wasaff@enron.com'
p316
sg12
F22.0
sg13
F0.0
sg14
F337.0
sg15
Fnan
sg16
F30.0
sg17
F1425.0
sg18
F0.0
sg19
F325000.0
sg20
F2056427.0
sg21
F7.0
sg22
F200000.0
sg23
F388167.0
sg24
F259996.0
sg25
F1034395.0
sg26
F1668260.0
sg27
F84.25
ssS'WHITE JR THOMAS E'
p317
(dp318
g3
F1211.0
sg4
F0.0
sg5
F2.584537105201731
sg6
F81353.0
sg7
I00
sg8
F10.057358691295487
sg9
F0.0
sg10
S'thomas.white@enron.com'
p319
sg12
F35.0
sg13
F0.0
sg14
F740.5
sg15
Fnan
sg16
F41.0
sg17
F1085463.0
sg18
F0.0
sg19
F450000.0
sg20
F15144123.0
sg21
F8.0
sg22
F0.0
sg23
F13847074.0
sg24
F317543.0
sg25
F1934359.0
sg26
F1297049.0
sg27
F66.10439568709847
ssS'CHRISTODOULOU DIOMEDES'
p320
(dp321
g3
F1211.0
sg4
F0.0
sg5
F2.584537105201731
sg6
F0.0
sg7
I00
sg8
F10.057358691295487
sg9
F0.0
sg10
S'diomedes.christodoulou@enron.com'
p322
sg12
F35.0
sg13
F0.0
sg14
F740.5
sg15
Fnan
sg16
F41.0
sg17
F0.0
sg18
F0.0
sg19
F750000.0
sg20
F6077885.0
sg21
F8.0
sg22
F0.0
sg23
F950730.0
sg24
F258741.0
sg25
F0.0
sg26
F5127155.0
sg27
F66.10439568709847
ssS'ALLEN PHILLIP K'
p323
(dp324
g3
F2902.0
sg4
F2869717.0
sg5
F1.6195727084769125
sg6
F13868.0
sg7
I00
sg8
F2.9612756264236904
sg9
F-3081055.0
sg10
S'phillip.allen@enron.com'
p325
sg12
F47.0
sg13
F-126027.0
sg14
F1407.0
sg15
Fnan
sg16
F2195.0
sg17
F152.0
sg18
F0.0
sg19
F4175000.0
sg20
F1729541.0
sg21
F65.0
sg22
F304805.0
sg23
F126027.0
sg24
F201955.0
sg25
F4484442.0
sg26
F1729541.0
sg27
F48.48380427291523
ssS'SHARP VICTORIA T'
p326
(dp327
g3
F3136.0
sg4
F187469.0
sg5
F0.7653061224489796
sg6
F116337.0
sg7
I00
sg8
F4.411764705882353
sg9
F0.0
sg10
S'vicki.sharp@enron.com'
p328
sg12
F24.0
sg13
F0.0
sg14
F2477.0
sg15
Fnan
sg16
F136.0
sg17
F2401.0
sg18
F0.0
sg19
F600000.0
sg20
F494136.0
sg21
F6.0
sg22
F422158.0
sg23
F213063.0
sg24
F248146.0
sg25
F1576511.0
sg26
F281073.0
sg27
F78.9859693877551
ssS'JAEDICKE ROBERT'
p329
(dp330
g3
F1211.0
sg4
F0.0
sg5
F2.584537105201731
sg6
F0.0
sg7
I00
sg8
F10.057358691295487
sg9
F-25000.0
sg10
Fnan
sg12
F35.0
sg13
F-44093.0
sg14
F740.5
sg15
Fnan
sg16
F41.0
sg17
F0.0
sg18
F108750.0
sg19
F750000.0
sg20
F431750.0
sg21
F8.0
sg22
F0.0
sg23
F44093.0
sg24
F258741.0
sg25
F83750.0
sg26
F431750.0
sg27
F66.10439568709847
ssS'WINOKUR JR. HERBERT S'
p331
(dp332
g3
F1211.0
sg4
F0.0
sg5
F2.584537105201731
sg6
F1413.0
sg7
I00
sg8
F10.057358691295487
sg9
F-25000.0
sg10
Fnan
sg12
F35.0
sg13
F0.0
sg14
F740.5
sg15
Fnan
sg16
F41.0
sg17
F0.0
sg18
F108579.0
sg19
F750000.0
sg20
F0.0
sg21
F8.0
sg22
F0.0
sg23
F0.0
sg24
F258741.0
sg25
F84992.0
sg26
F0.0
sg27
F66.10439568709847
ssS'BROWN MICHAEL'
p333
(dp334
g3
F1486.0
sg4
F0.0
sg5
F0.8748317631224763
sg6
F49288.0
sg7
I00
sg8
F2.4390243902439024
sg9
F0.0
sg10
S'michael.brown@enron.com'
p335
sg12
F13.0
sg13
F0.0
sg14
F761.0
sg15
Fnan
sg16
F41.0
sg17
F0.0
sg18
F0.0
sg19
F750000.0
sg20
F0.0
sg21
F1.0
sg22
F0.0
sg23
F0.0
sg24
F258741.0
sg25
F49288.0
sg26
F0.0
sg27
F51.21130551816958
ssS'BADUM JAMES P'
p336
(dp337
g3
F1211.0
sg4
F178980.0
sg5
F2.584537105201731
sg6
F3486.0
sg7
I00
sg8
F10.057358691295487
sg9
F0.0
sg10
Fnan
sg12
F35.0
sg13
F0.0
sg14
F740.5
sg15
Fnan
sg16
F41.0
sg17
F0.0
sg18
F0.0
sg19
F750000.0
sg20
F257817.0
sg21
F8.0
sg22
F0.0
sg23
F0.0
sg24
F258741.0
sg25
F182466.0
sg26
F257817.0
sg27
F66.10439568709847
ssS'HUGHES JAMES A'
p338
(dp339
g3
F719.0
sg4
F0.0
sg5
F4.867872044506258
sg6
F0.0
sg7
I00
sg8
F14.705882352941178
sg9
F0.0
sg10
S'james.hughes@enron.com'
p340
sg12
F35.0
sg13
F0.0
sg14
F589.0
sg15
Fnan
sg16
F34.0
sg17
F0.0
sg18
F0.0
sg19
F750000.0
sg20
F1118394.0
sg21
F5.0
sg22
F0.0
sg23
F363428.0
sg24
F258741.0
sg25
F0.0
sg26
F754966.0
sg27
F81.91933240611962
ssS'REYNOLDS LAWRENCE'
p341
(dp342
g3
F1211.0
sg4
F51365.0
sg5
F2.584537105201731
sg6
F8409.0
sg7
I00
sg8
F10.057358691295487
sg9
F-200000.0
sg10
Fnan
sg12
F35.0
sg13
F-140264.0
sg14
F740.5
sg15
Fnan
sg16
F41.0
sg17
F202052.0
sg18
F0.0
sg19
F100000.0
sg20
F4221891.0
sg21
F8.0
sg22
F156250.0
sg23
F201483.0
sg24
F76399.0
sg25
F394475.0
sg26
F4160672.0
sg27
F66.10439568709847
ssS'DIMICHELE RICHARD G'
p343
(dp344
g3
F1211.0
sg4
F0.0
sg5
F2.584537105201731
sg6
F35812.0
sg7
I00
sg8
F10.057358691295487
sg9
F0.0
sg10
S'richard.dimichele@enron.com'
p345
sg12
F35.0
sg13
F0.0
sg14
F740.5
sg15
Fnan
sg16
F41.0
sg17
F374689.0
sg18
F0.0
sg19
F1000000.0
sg20
F8317782.0
sg21
F8.0
sg22
F694862.0
sg23
F126027.0
sg24
F262788.0
sg25
F2368151.0
sg26
F8191755.0
sg27
F66.10439568709847
ssS'BHATNAGAR SANJAY'
p346
(dp347
g3
F523.0
sg4
F0.0
sg5
F0.0
sg6
F137864.0
sg7
I00
sg8
F3.4482758620689653
sg9
F0.0
sg10
S'sanjay.bhatnagar@enron.com'
p348
sg12
F0.0
sg13
F-2604490.0
sg14
F463.0
sg15
Fnan
sg16
F29.0
sg17
F0.0
sg18
F0.0
sg19
F750000.0
sg20
F15456290.0
sg21
F1.0
sg22
F0.0
sg23
F2604490.0
sg24
F258741.0
sg25
F137864.0
sg26
F15456290.0
sg27
F88.52772466539197
ssS'CARTER REBECCA C'
p349
(dp350
g3
F312.0
sg4
F0.0
sg5
F9.294871794871796
sg6
F0.0
sg7
I00
sg8
F46.666666666666664
sg9
F-159792.0
sg10
S'rebecca.carter@enron.com'
p351
sg12
F29.0
sg13
F-307301.0
sg14
F196.0
sg15
Fnan
sg16
F15.0
sg17
F540.0
sg18
F0.0
sg19
F300000.0
sg20
F0.0
sg21
F7.0
sg22
F75000.0
sg23
F307301.0
sg24
F261809.0
sg25
F477557.0
sg26
F0.0
sg27
F62.82051282051282
ssS'BUCHANAN HAROLD G'
p352
(dp353
g3
F1088.0
sg4
F0.0
sg5
F0.0
sg6
F600.0
sg7
I00
sg8
F0.0
sg9
F0.0
sg10
S'john.buchanan@enron.com'
p354
sg12
F0.0
sg13
F0.0
sg14
F23.0
sg15
Fnan
sg16
F125.0
sg17
F1215.0
sg18
F0.0
sg19
F500000.0
sg20
F1014505.0
sg21
F0.0
sg22
F304805.0
sg23
F189041.0
sg24
F248017.0
sg25
F1054637.0
sg26
F825464.0
sg27
F2.1139705882352944
ssS'YEAP SOON'
p355
(dp356
g3
F1211.0
sg4
F0.0
sg5
F2.584537105201731
sg6
F55097.0
sg7
I00
sg8
F10.057358691295487
sg9
F0.0
sg10
Fnan
sg12
F35.0
sg13
F0.0
sg14
F740.5
sg15
Fnan
sg16
F41.0
sg17
F0.0
sg18
F0.0
sg19
F750000.0
sg20
F192758.0
sg21
F8.0
sg22
F0.0
sg23
F0.0
sg24
F258741.0
sg25
F55097.0
sg26
F192758.0
sg27
F66.10439568709847
ssS'MURRAY JULIA H'
p357
(dp358
g3
F2192.0
sg4
F0.0
sg5
F0.5018248175182481
sg6
F57580.0
sg7
I00
sg8
F4.444444444444445
sg9
F0.0
sg10
S'julia.murray@enron.com'
p359
sg12
F11.0
sg13
F0.0
sg14
F395.0
sg15
Fnan
sg16
F45.0
sg17
F330.0
sg18
F0.0
sg19
F400000.0
sg20
F597461.0
sg21
F2.0
sg22
F125000.0
sg23
F196983.0
sg24
F229284.0
sg25
F812194.0
sg26
F400478.0
sg27
F18.02007299270073
ssS'GARLAND C KEVIN'
p360
(dp361
g3
F209.0
sg4
F0.0
sg5
F4.784688995215311
sg6
F48405.0
sg7
I00
sg8
F61.36363636363637
sg9
F0.0
sg10
S'kevin.garland@enron.com'
p362
sg12
F10.0
sg13
F0.0
sg14
F178.0
sg15
Fnan
sg16
F44.0
sg17
F60814.0
sg18
F0.0
sg19
F850000.0
sg20
F896153.0
sg21
F27.0
sg22
F375304.0
sg23
F259907.0
sg24
F231946.0
sg25
F1566469.0
sg26
F636246.0
sg27
F85.16746411483254
ssS'DODSON KEITH'
p363
(dp364
g3
F176.0
sg4
F0.0
sg5
F5.681818181818182
sg6
F28164.0
sg7
I00
sg8
F21.428571428571427
sg9
F0.0
sg10
S'keith.dodson@enron.com'
p365
sg12
F10.0
sg13
F0.0
sg14
F114.0
sg15
Fnan
sg16
F14.0
sg17
F774.0
sg18
F0.0
sg19
F70000.0
sg20
F0.0
sg21
F3.0
sg22
F0.0
sg23
F0.0
sg24
F221003.0
sg25
F319941.0
sg26
F0.0
sg27
F64.77272727272727
ssS'YEAGER F SCOTT'
p366
(dp367
g3
F1211.0
sg4
F0.0
sg5
F2.584537105201731
sg6
F53947.0
sg7
I01
sg8
F10.057358691295487
sg9
F0.0
sg10
S'scott.yeager@enron.com'
p368
sg12
F35.0
sg13
F0.0
sg14
F740.5
sg15
Fnan
sg16
F41.0
sg17
F147950.0
sg18
F0.0
sg19
F750000.0
sg20
F11884758.0
sg21
F8.0
sg22
F0.0
sg23
F3576206.0
sg24
F158403.0
sg25
F360300.0
sg26
F8308552.0
sg27
F66.10439568709847
ssS'HIRKO JOSEPH'
p369
(dp370
g3
F1211.0
sg4
F10259.0
sg5
F2.584537105201731
sg6
F77978.0
sg7
I01
sg8
F10.057358691295487
sg9
F0.0
sg10
S'joe.hirko@enron.com'
p371
sg12
F35.0
sg13
F0.0
sg14
F740.5
sg15
Fnan
sg16
F41.0
sg17
F2856.0
sg18
F0.0
sg19
F750000.0
sg20
F30766064.0
sg21
F8.0
sg22
F0.0
sg23
F0.0
sg24
F258741.0
sg25
F91093.0
sg26
F30766064.0
sg27
F66.10439568709847
ssS'DIETRICH JANET R'
p372
(dp373
g3
F2572.0
sg4
F0.0
sg5
F11.858475894245723
sg6
F3475.0
sg7
I00
sg8
F22.22222222222222
sg9
F0.0
sg10
S'janet.dietrich@enron.com'
p374
sg12
F305.0
sg13
F0.0
sg14
F1902.0
sg15
Fnan
sg16
F63.0
sg17
F473.0
sg18
F0.0
sg19
F600000.0
sg20
F1865087.0
sg21
F14.0
sg22
F556416.0
sg23
F315068.0
sg24
F250100.0
sg25
F1410464.0
sg26
F1550019.0
sg27
F73.950233281493
ssS'DERRICK JR. JAMES V'
p375
(dp376
g3
F2181.0
sg4
F0.0
sg5
F2.9344337459880787
sg6
F51124.0
sg7
I00
sg8
F2.2002200220022003
sg9
F-1284000.0
sg10
S'james.derrick@enron.com'
p377
sg12
F64.0
sg13
F-1787380.0
sg14
F1401.0
sg15
Fnan
sg16
F909.0
sg17
F7482.0
sg18
F0.0
sg19
F800000.0
sg20
F8831913.0
sg21
F20.0
sg22
F484000.0
sg23
F1787380.0
sg24
F492375.0
sg25
F550981.0
sg26
F8831913.0
sg27
F64.2365887207703
ssS'FREVERT MARK A'
p378
(dp379
g3
F3275.0
sg4
F6426990.0
sg5
F7.3893129770992365
sg6
F86987.0
sg7
I00
sg8
F28.57142857142857
sg9
F-3367011.0
sg10
S'mark.frevert@enron.com'
p380
sg12
F242.0
sg13
F0.0
sg14
F2979.0
sg15
F2000000.0
sg16
F21.0
sg17
F7427621.0
sg18
F0.0
sg19
F2000000.0
sg20
F14622185.0
sg21
F6.0
sg22
F1617011.0
sg23
F4188667.0
sg24
F1060932.0
sg25
F17252530.0
sg26
F10433518.0
sg27
F90.9618320610687
ssS'PAI LOU L'
p381
(dp382
g3
F1211.0
sg4
F0.0
sg5
F2.584537105201731
sg6
F32047.0
sg7
I00
sg8
F10.057358691295487
sg9
F0.0
sg10
S'lou.pai@enron.com'
p383
sg12
F35.0
sg13
F0.0
sg14
F740.5
sg15
Fnan
sg16
F41.0
sg17
F1829457.0
sg18
F0.0
sg19
F1000000.0
sg20
F23817930.0
sg21
F8.0
sg22
F0.0
sg23
F8453763.0
sg24
F261879.0
sg25
F3123383.0
sg26
F15364167.0
sg27
F66.10439568709847
ssS'BAY FRANKLIN R'
p384
(dp385
g3
F1211.0
sg4
F260455.0
sg5
F2.584537105201731
sg6
F129142.0
sg7
I00
sg8
F10.057358691295487
sg9
F-201641.0
sg10
S'frank.bay@enron.com'
p386
sg12
F35.0
sg13
F-82782.0
sg14
F740.5
sg15
Fnan
sg16
F41.0
sg17
F69.0
sg18
F0.0
sg19
F400000.0
sg20
F63014.0
sg21
F8.0
sg22
F0.0
sg23
F145796.0
sg24
F239671.0
sg25
F827696.0
sg26
F0.0
sg27
F66.10439568709847
ssS'HAYSLETT RODERICK J'
p387
(dp388
g3
F2649.0
sg4
F0.0
sg5
F1.3212533031332578
sg6
F0.0
sg7
I00
sg8
F3.581526861451461
sg9
F0.0
sg10
S'rod.hayslett@enron.com'
p389
sg12
F35.0
sg13
F0.0
sg14
F571.0
sg15
Fnan
sg16
F1061.0
sg17
F0.0
sg18
F0.0
sg19
F750000.0
sg20
F346663.0
sg21
F38.0
sg22
F0.0
sg23
F346663.0
sg24
F258741.0
sg25
F0.0
sg26
F0.0
sg27
F21.555303888259722
ssS'FUGH JOHN L'
p390
(dp391
g3
F1211.0
sg4
F50591.0
sg5
F2.584537105201731
sg6
F0.0
sg7
I00
sg8
F10.057358691295487
sg9
F0.0
sg10
Fnan
sg12
F35.0
sg13
F0.0
sg14
F740.5
sg15
Fnan
sg16
F41.0
sg17
F0.0
sg18
F0.0
sg19
F750000.0
sg20
F176378.0
sg21
F8.0
sg22
F0.0
sg23
F0.0
sg24
F258741.0
sg25
F50591.0
sg26
F176378.0
sg27
F66.10439568709847
ssS'FALLON JAMES B'
p392
(dp393
g3
F1755.0
sg4
F0.0
sg5
F2.3931623931623935
sg6
F95924.0
sg7
I00
sg8
F49.333333333333336
sg9
F0.0
sg10
S'jim.fallon@enron.com'
p394
sg12
F42.0
sg13
F0.0
sg14
F1604.0
sg15
Fnan
sg16
F75.0
sg17
F401481.0
sg18
F0.0
sg19
F2500000.0
sg20
F2332399.0
sg21
F37.0
sg22
F374347.0
sg23
F1392142.0
sg24
F304588.0
sg25
F3676340.0
sg26
F940257.0
sg27
F91.3960113960114
ssS'KOENIG MARK E'
p395
(dp396
g3
F2374.0
sg4
F0.0
sg5
F2.232518955349621
sg6
F127017.0
sg7
I01
sg8
F24.59016393442623
sg9
F0.0
sg10
S'mark.koenig@enron.com'
p397
sg12
F53.0
sg13
F0.0
sg14
F2271.0
sg15
Fnan
sg16
F61.0
sg17
F150458.0
sg18
F0.0
sg19
F700000.0
sg20
F1920055.0
sg21
F15.0
sg22
F300000.0
sg23
F1248318.0
sg24
F309946.0
sg25
F1587421.0
sg26
F671737.0
sg27
F95.66133108677339
ssS'SAVAGE FRANK'
p398
(dp399
g3
F1211.0
sg4
F0.0
sg5
F2.584537105201731
sg6
F0.0
sg7
I00
sg8
F10.057358691295487
sg9
F-121284.0
sg10
Fnan
sg12
F35.0
sg13
F0.0
sg14
F740.5
sg15
Fnan
sg16
F41.0
sg17
F0.0
sg18
F125034.0
sg19
F750000.0
sg20
F0.0
sg21
F8.0
sg22
F0.0
sg23
F0.0
sg24
F258741.0
sg25
F3750.0
sg26
F0.0
sg27
F66.10439568709847
ssS'IZZO LAWRENCE L'
p400
(dp401
g3
F496.0
sg4
F0.0
sg5
F5.64516129032258
sg6
F28093.0
sg7
I00
sg8
F26.31578947368421
sg9
F0.0
sg10
S'larry.izzo@enron.com'
p402
sg12
F28.0
sg13
F0.0
sg14
F437.0
sg15
Fnan
sg16
F19.0
sg17
F1553729.0
sg18
F0.0
sg19
F750000.0
sg20
F5819980.0
sg21
F5.0
sg22
F312500.0
sg23
F3654808.0
sg24
F85274.0
sg25
F1979596.0
sg26
F2165172.0
sg27
F88.10483870967742
ssS'TILNEY ELIZABETH A'
p403
(dp404
g3
F460.0
sg4
F0.0
sg5
F2.1739130434782608
sg6
F0.0
sg7
I00
sg8
F57.89473684210527
sg9
F-575000.0
sg10
S'elizabeth.tilney@enron.com'
p405
sg12
F10.0
sg13
F0.0
sg14
F379.0
sg15
Fnan
sg16
F19.0
sg17
F152055.0
sg18
F0.0
sg19
F300000.0
sg20
F1168042.0
sg21
F11.0
sg22
F275000.0
sg23
F576792.0
sg24
F247338.0
sg25
F399393.0
sg26
F591250.0
sg27
F82.3913043478261
ssS'MARTIN AMANDA K'
p406
(dp407
g3
F1522.0
sg4
F85430.0
sg5
F0.5256241787122208
sg6
F8211.0
sg7
I00
sg8
F0.0
sg9
F0.0
sg10
S'a..martin@enron.com'
p408
sg12
F8.0
sg13
F0.0
sg14
F477.0
sg15
Fnan
sg16
F230.0
sg17
F2818454.0
sg18
F0.0
sg19
F750000.0
sg20
F2070306.0
sg21
F0.0
sg22
F5145434.0
sg23
F0.0
sg24
F349487.0
sg25
F8407016.0
sg26
F2070306.0
sg27
F31.340341655716163
ssS'BUY RICHARD B'
p409
(dp410
g3
F3523.0
sg4
F649584.0
sg5
F4.428044280442804
sg6
F0.0
sg7
I00
sg8
F6.7426400759734095
sg9
F-694862.0
sg10
S'rick.buy@enron.com'
p411
sg12
F156.0
sg13
F0.0
sg14
F2333.0
sg15
Fnan
sg16
F1053.0
sg17
F400572.0
sg18
F0.0
sg19
F900000.0
sg20
F3444470.0
sg21
F71.0
sg22
F769862.0
sg23
F901657.0
sg24
F330546.0
sg25
F2355702.0
sg26
F2542813.0
sg27
F66.22196991200681
ssS'GRAMM WENDY L'
p412
(dp413
g3
F1211.0
sg4
F0.0
sg5
F2.584537105201731
sg6
F0.0
sg7
I00
sg8
F10.057358691295487
sg9
F0.0
sg10
Fnan
sg12
F35.0
sg13
F0.0
sg14
F740.5
sg15
Fnan
sg16
F41.0
sg17
F0.0
sg18
F119292.0
sg19
F750000.0
sg20
F0.0
sg21
F8.0
sg22
F0.0
sg23
F0.0
sg24
F258741.0
sg25
F119292.0
sg26
F0.0
sg27
F66.10439568709847
ssS'CAUSEY RICHARD A'
p414
(dp415
g3
F1892.0
sg4
F0.0
sg5
F3.06553911205074
sg6
F30674.0
sg7
I01
sg8
F24.489795918367346
sg9
F-235000.0
sg10
S'richard.causey@enron.com'
p416
sg12
F58.0
sg13
F0.0
sg14
F1585.0
sg15
Fnan
sg16
F49.0
sg17
F307895.0
sg18
F0.0
sg19
F1000000.0
sg20
F2502063.0
sg21
F12.0
sg22
F350000.0
sg23
F2502063.0
sg24
F415189.0
sg25
F1868758.0
sg26
F0.0
sg27
F83.7737843551797
ssS'TAYLOR MITCHELL S'
p417
(dp418
g3
F533.0
sg4
F227449.0
sg5
F0.0
sg6
F0.0
sg7
I00
sg8
F0.0
sg9
F0.0
sg10
S'mitchell.taylor@enron.com'
p419
sg12
F0.0
sg13
F0.0
sg14
F300.0
sg15
Fnan
sg16
F29.0
sg17
F0.0
sg18
F0.0
sg19
F600000.0
sg20
F3745048.0
sg21
F0.0
sg22
F0.0
sg23
F563798.0
sg24
F265214.0
sg25
F1092663.0
sg26
F3181250.0
sg27
F56.28517823639775
ssS'DONAHUE JR JEFFREY M'
p420
(dp421
g3
F865.0
sg4
F0.0
sg5
F21.734104046242773
sg6
F96268.0
sg7
I00
sg8
F50.0
sg9
F-300000.0
sg10
S'jeff.donahue@enron.com'
p422
sg12
F188.0
sg13
F0.0
sg14
F772.0
sg15
Fnan
sg16
F22.0
sg17
F891.0
sg18
F0.0
sg19
F800000.0
sg20
F1080988.0
sg21
F11.0
sg22
F0.0
sg23
F315068.0
sg24
F278601.0
sg25
F875760.0
sg26
F765920.0
sg27
F89.2485549132948
ssS'GLISAN JR BEN F'
p423
(dp424
g3
F873.0
sg4
F0.0
sg5
F5.956471935853378
sg6
F125978.0
sg7
I01
sg8
F37.5
sg9
F0.0
sg10
S'ben.glisan@enron.com'
p425
sg12
F52.0
sg13
F0.0
sg14
F874.0
sg15
Fnan
sg16
F16.0
sg17
F200308.0
sg18
F0.0
sg19
F600000.0
sg20
F778546.0
sg21
F6.0
sg22
F71023.0
sg23
F393818.0
sg24
F274975.0
sg25
F1272284.0
sg26
F384728.0
sg27
F100.11454753722795
ss.