(lp0
S'poi'
p1
aS'salary'
p2
aS'total_payments'
p3
aS'exercised_stock_options'
p4
aS'bonus'
p5
aS'restricted_stock'
p6
aS'shared_receipt_with_poi'
p7
aS'total_stock_value'
p8
aS'expenses'
p9
aS'other'
p10
aS'from_this_person_to_poi'
p11
aS'deferred_income'
p12
aS'long_term_incentive'
p13
aS'from_poi_to_this_person'
p14
aS'from_this_person_to_poi_pct'
p15
aS'shared_receipt_with_poi_pct'
p16
a.